target datalayout = "e-m:e-p270:32:32-p271:32:32-p272:64:64-i64:64-i128:128-f80:128-n8:16:32:64-S128"
target triple = "x86_64-pc-linux-gnu"

%struct._capture_file = type { ptr, i32, ptr, ptr, i8, i8, i8, i64, i16, i32, i32, i32, ptr, i32, i64, i32, i32, i32, i32, i8, i32, %struct.nstime_t, i32, ptr, ptr, ptr, i8, i8, i32, ptr, i8, i8, i8, i8, i8, i32, i32, i8, ptr, i32, i32, i8, %struct.packet_provider_data, i32, i32, %struct.epan_column_info, ptr, ptr, ptr, %struct.wtap_rec, %struct.Buffer, ptr, i64, i32 }
%struct.nstime_t = type { i64, i32 }
%struct.packet_provider_data = type { ptr, ptr, ptr, ptr, ptr, ptr }
%struct.epan_column_info = type { ptr, i32, ptr, ptr, ptr, %struct.col_expr_t, i8, ptr }
%struct.col_expr_t = type { ptr, ptr }
%struct.wtap_rec = type { i32, i32, i32, %struct.nstime_t, i32, %struct.nstime_t, i8, %union.anon, ptr, i8, %struct.Buffer, %struct.Buffer }
%union.anon = type { %struct.wtap_packet_header }
%struct.wtap_packet_header = type { i32, i32, i32, i32, %union.wtap_pseudo_header }
%union.wtap_pseudo_header = type { %struct.erf_mc_phdr }
%struct.erf_mc_phdr = type { %struct.erf_phdr, [16 x %struct.erf_ehdr], %union.anon.1 }
%struct.erf_phdr = type { i64, i8, i8, i16, i16, i16 }
%struct.erf_ehdr = type { i64 }
%union.anon.1 = type { i32 }
%struct.Buffer = type { ptr, i64, i64, i64 }
%struct._frame_data = type <{ i32, i32, i32, i32, i32, [4 x i8], i64, ptr, ptr, ptr, i8, i16, [5 x i8], %struct.nstime_t, %struct.nstime_t, i32, i32 }>
%struct.cbs_t = type { ptr, i64, ptr }

; Function Attrs: inlinehint nounwind null_pointer_is_valid sspstrong uwtable
define internal ptr @ws_buffer_start_ptr(ptr noundef %0) #17 {
  %2 = alloca ptr, align 8
  store ptr %0, ptr %2, align 8
  %3 = load ptr, ptr %2, align 8
  %4 = getelementptr inbounds nuw %struct.Buffer, ptr %3, i32 0, i32 0
  %5 = load ptr, ptr %4, align 8
  %6 = load ptr, ptr %2, align 8
  %7 = getelementptr inbounds nuw %struct.Buffer, ptr %6, i32 0, i32 2
  %8 = load i64, ptr %7, align 8
  %9 = getelementptr i8, ptr %5, i64 %8
  ret ptr %9
}

; Function Attrs: null_pointer_is_valid sspstrong uwtable
define hidden zeroext i1 @cf_read_record(ptr noundef %0, ptr noundef %1, ptr noundef %2) #1 {
  %4 = alloca i1, align 1
  %5 = alloca ptr, align 8
  %6 = alloca ptr, align 8
  %7 = alloca ptr, align 8
  %8 = alloca i32, align 4
  %9 = alloca ptr, align 8
  %10 = alloca i32, align 4
  store ptr %0, ptr %5, align 8
  store ptr %1, ptr %6, align 8
  store ptr %2, ptr %7, align 8
  call void @llvm.lifetime.start.p0(i64 4, ptr %8) #19
  call void @llvm.lifetime.start.p0(i64 8, ptr %9) #19
  %11 = load ptr, ptr %5, align 8
  %12 = getelementptr inbounds nuw %struct._capture_file, ptr %11, i32 0, i32 42
  %13 = getelementptr inbounds nuw %struct.packet_provider_data, ptr %12, i32 0, i32 0
  %14 = load ptr, ptr %13, align 8
  %15 = load ptr, ptr %6, align 8
  %16 = getelementptr inbounds nuw %struct._frame_data, ptr %15, i32 0, i32 6
  %17 = load i64, ptr %16, align 8
  %18 = load ptr, ptr %7, align 8
  %19 = call zeroext i1 @wtap_seek_read(ptr noundef %14, i64 noundef %17, ptr noundef %18, ptr noundef %8, ptr noundef %9)
  br i1 %19, label %26, label %20

20:                                               ; preds = %3
  %21 = load ptr, ptr %5, align 8
  %22 = getelementptr inbounds nuw %struct._capture_file, ptr %21, i32 0, i32 2
  %23 = load ptr, ptr %22, align 8
  %24 = load i32, ptr %8, align 4
  %25 = load ptr, ptr %9, align 8
  call void @report_cfile_read_failure(ptr noundef %23, i32 noundef %24, ptr noundef %25)
  store i1 false, ptr %4, align 1
  store i32 1, ptr %10, align 4
  br label %27

26:                                               ; preds = %3
  store i1 true, ptr %4, align 1
  store i32 1, ptr %10, align 4
  br label %27

27:                                               ; preds = %26, %20
  call void @llvm.lifetime.end.p0(i64 8, ptr %9) #19
  call void @llvm.lifetime.end.p0(i64 4, ptr %8) #19
  %28 = load i1, ptr %4, align 1
  ret i1 %28
}

; Function Attrs: null_pointer_is_valid sspstrong uwtable
define internal i32 @match_binary_reverse(ptr noundef %0, ptr noundef %1, ptr noundef %2, ptr noundef %3) #1 {
  %5 = alloca i32, align 4
  %6 = alloca ptr, align 8
  %7 = alloca ptr, align 8
  %8 = alloca ptr, align 8
  %9 = alloca ptr, align 8
  %10 = alloca ptr, align 8
  %11 = alloca i64, align 8
  %12 = alloca i32, align 4
  %13 = alloca ptr, align 8
  %14 = alloca ptr, align 8
  %15 = alloca i32, align 4
  store ptr %0, ptr %6, align 8
  store ptr %1, ptr %7, align 8
  store ptr %2, ptr %8, align 8
  store ptr %3, ptr %9, align 8
  call void @llvm.lifetime.start.p0(i64 8, ptr %10) #19
  %16 = load ptr, ptr %9, align 8
  store ptr %16, ptr %10, align 8
  call void @llvm.lifetime.start.p0(i64 8, ptr %11) #19
  %17 = load ptr, ptr %10, align 8
  %18 = getelementptr inbounds nuw %struct.cbs_t, ptr %17, i32 0, i32 1
  %19 = load i64, ptr %18, align 8
  store i64 %19, ptr %11, align 8
  call void @llvm.lifetime.start.p0(i64 4, ptr %12) #19
  call void @llvm.lifetime.start.p0(i64 8, ptr %13) #19
  store ptr null, ptr %13, align 8
  call void @llvm.lifetime.start.p0(i64 8, ptr %14) #19
  %20 = load ptr, ptr %6, align 8
  %21 = load ptr, ptr %7, align 8
  %22 = load ptr, ptr %8, align 8
  %23 = call zeroext i1 @cf_read_record(ptr noundef %20, ptr noundef %21, ptr noundef %22)
  br i1 %23, label %25, label %24

24:                                               ; preds = %4
  store i32 2, ptr %5, align 4
  store i32 1, ptr %15, align 4
  br label %114

25:                                               ; preds = %4
  store i32 0, ptr %12, align 4
  %26 = load ptr, ptr %8, align 8
  %27 = getelementptr inbounds nuw %struct.wtap_rec, ptr %26, i32 0, i32 11
  %28 = call ptr @ws_buffer_start_ptr(ptr noundef %27)
  store ptr %28, ptr %14, align 8
  %29 = load i64, ptr %11, align 8
  %30 = load ptr, ptr %7, align 8
  %31 = getelementptr inbounds nuw %struct._frame_data, ptr %30, i32 0, i32 3
  %32 = load i32, ptr %31, align 4
  %33 = zext i32 %32 to i64
  %34 = icmp ugt i64 %29, %33
  br i1 %34, label %35, label %37

35:                                               ; preds = %25
  %36 = load i32, ptr %12, align 4
  store i32 %36, ptr %5, align 4
  store i32 1, ptr %15, align 4
  br label %114

37:                                               ; preds = %25
  %38 = load ptr, ptr %14, align 8
  %39 = load ptr, ptr %7, align 8
  %40 = getelementptr inbounds nuw %struct._frame_data, ptr %39, i32 0, i32 3
  %41 = load i32, ptr %40, align 4
  %42 = zext i32 %41 to i64
  %43 = getelementptr i8, ptr %38, i64 %42
  %44 = load i64, ptr %11, align 8
  %45 = sub i64 0, %44
  %46 = getelementptr i8, ptr %43, i64 %45
  store ptr %46, ptr %13, align 8
  %47 = load ptr, ptr %6, align 8
  %48 = getelementptr inbounds nuw %struct._capture_file, ptr %47, i32 0, i32 36
  %49 = load i32, ptr %48, align 4
  %50 = icmp ne i32 %49, 0
  br i1 %50, label %56, label %51

51:                                               ; preds = %37
  %52 = load ptr, ptr %6, align 8
  %53 = getelementptr inbounds nuw %struct._capture_file, ptr %52, i32 0, i32 35
  %54 = load i32, ptr %53, align 8
  %55 = icmp ne i32 %54, 0
  br i1 %55, label %56, label %64

56:                                               ; preds = %51, %37
  %57 = load ptr, ptr %14, align 8
  %58 = load ptr, ptr %6, align 8
  %59 = getelementptr inbounds nuw %struct._capture_file, ptr %58, i32 0, i32 35
  %60 = load i32, ptr %59, align 8
  %61 = zext i32 %60 to i64
  %62 = getelementptr i8, ptr %57, i64 %61
  %63 = getelementptr i8, ptr %62, i64 -1
  store ptr %63, ptr %13, align 8
  br label %64

64:                                               ; preds = %56, %51
  br label %65

65:                                               ; preds = %109, %64
  %66 = load ptr, ptr %13, align 8
  %67 = load ptr, ptr %14, align 8
  %68 = icmp uge ptr %66, %67
  br i1 %68, label %69, label %112

69:                                               ; preds = %65
  %70 = load ptr, ptr %14, align 8
  %71 = load ptr, ptr %10, align 8
  %72 = getelementptr inbounds nuw %struct.cbs_t, ptr %71, i32 0, i32 0
  %73 = load ptr, ptr %72, align 8
  %74 = getelementptr i8, ptr %73, i64 0
  %75 = load i8, ptr %74, align 1
  %76 = zext i8 %75 to i32
  %77 = load ptr, ptr %13, align 8
  %78 = load ptr, ptr %14, align 8
  %79 = ptrtoint ptr %77 to i64
  %80 = ptrtoint ptr %78 to i64
  %81 = sub i64 %79, %80
  %82 = add i64 %81, 1
  %83 = call ptr @ws_memrchr(ptr noundef %70, i32 noundef %76, i64 noundef %82)
  store ptr %83, ptr %13, align 8
  %84 = load ptr, ptr %13, align 8
  %85 = icmp eq ptr %84, null
  br i1 %85, label %86, label %87

86:                                               ; preds = %69
  br label %112

87:                                               ; preds = %69
  %88 = load ptr, ptr %13, align 8
  %89 = load ptr, ptr %10, align 8
  %90 = getelementptr inbounds nuw %struct.cbs_t, ptr %89, i32 0, i32 0
  %91 = load ptr, ptr %90, align 8
  %92 = load i64, ptr %11, align 8
  %93 = call i32 @memcmp(ptr noundef %88, ptr noundef %91, i64 noundef %92) #25
  %94 = icmp eq i32 %93, 0
  br i1 %94, label %95, label %108

95:                                               ; preds = %87
  store i32 1, ptr %12, align 4
  %96 = load ptr, ptr %13, align 8
  %97 = load ptr, ptr %14, align 8
  %98 = ptrtoint ptr %96 to i64
  %99 = ptrtoint ptr %97 to i64
  %100 = sub i64 %98, %99
  %101 = trunc i64 %100 to i32
  %102 = load ptr, ptr %6, align 8
  %103 = getelementptr inbounds nuw %struct._capture_file, ptr %102, i32 0, i32 35
  store i32 %101, ptr %103, align 8
  %104 = load i64, ptr %11, align 8
  %105 = trunc i64 %104 to i32
  %106 = load ptr, ptr %6, align 8
  %107 = getelementptr inbounds nuw %struct._capture_file, ptr %106, i32 0, i32 36
  store i32 %105, ptr %107, align 4
  br label %112

108:                                              ; preds = %87
  br label %109

109:                                              ; preds = %108
  %110 = load ptr, ptr %13, align 8
  %111 = getelementptr i8, ptr %110, i32 -1
  store ptr %111, ptr %13, align 8
  br label %65, !llvm.loop !47

112:                                              ; preds = %95, %86, %65
  %113 = load i32, ptr %12, align 4
  store i32 %113, ptr %5, align 4
  store i32 1, ptr %15, align 4
  br label %114

114:                                              ; preds = %112, %35, %24
  call void @llvm.lifetime.end.p0(i64 8, ptr %14) #19
  call void @llvm.lifetime.end.p0(i64 8, ptr %13) #19
  call void @llvm.lifetime.end.p0(i64 4, ptr %12) #19
  call void @llvm.lifetime.end.p0(i64 8, ptr %11) #19
  call void @llvm.lifetime.end.p0(i64 8, ptr %10) #19
  %115 = load i32, ptr %5, align 4
  ret i32 %115
}