; Function Attrs: null_pointer_is_valid sspstrong uwtable
define internal range(i32 0, 3) i32 @match_binary_reverse(ptr noundef captures(none) %0, ptr noundef readonly captures(none) %1, ptr noundef %2, ptr noundef readonly captures(none) %3) #1 {
  %5 = alloca i32, align 4
  %6 = alloca ptr, align 8
  %7 = getelementptr inbounds nuw i8, ptr %3, i64 8
  %8 = load i64, ptr %7, align 8
  call void @llvm.lifetime.start.p0(i64 4, ptr nonnull %5) #23
  call void @llvm.lifetime.start.p0(i64 8, ptr nonnull %6) #23
  %9 = getelementptr inbounds nuw i8, ptr %0, i64 224
  %10 = load ptr, ptr %9, align 8
  %11 = getelementptr inbounds nuw i8, ptr %1, i64 24
  %12 = load i64, ptr %11, align 8
  %13 = call zeroext i1 @wtap_seek_read(ptr noundef %10, i64 noundef %12, ptr noundef %2, ptr noundef nonnull %5, ptr noundef nonnull %6)
  br i1 %13, label %18, label %cf_read_record.exit

cf_read_record.exit:                              ; preds = %4
  %14 = getelementptr inbounds nuw i8, ptr %0, i64 16
  %15 = load ptr, ptr %14, align 8
  %16 = load i32, ptr %5, align 4
  %17 = load ptr, ptr %6, align 8
  call void @report_cfile_read_failure(ptr noundef %15, i32 noundef %16, ptr noundef %17)
  call void @llvm.lifetime.end.p0(i64 8, ptr nonnull %6) #23
  call void @llvm.lifetime.end.p0(i64 4, ptr nonnull %5) #23
  br label %.loopexit

18:                                               ; preds = %4
  call void @llvm.lifetime.end.p0(i64 8, ptr nonnull %6) #23
  call void @llvm.lifetime.end.p0(i64 4, ptr nonnull %5) #23
  %19 = getelementptr inbounds nuw i8, ptr %2, i64 280
  %.val = load ptr, ptr %19, align 8
  %20 = getelementptr i8, ptr %2, i64 296
  %.val41 = load i64, ptr %20, align 8
  %21 = getelementptr i8, ptr %.val, i64 %.val41
  %22 = getelementptr inbounds nuw i8, ptr %1, i64 12
  %23 = load i32, ptr %22, align 4
  %24 = zext i32 %23 to i64
  %25 = icmp ugt i64 %8, %24
  br i1 %25, label %.loopexit, label %26

26:                                               ; preds = %18
  %27 = getelementptr inbounds nuw i8, ptr %0, i64 188
  %28 = load i32, ptr %27, align 4
  %.not = icmp eq i32 %28, 0
  br i1 %.not, label %29, label %._crit_edge

._crit_edge:                                      ; preds = %26
  %.phi.trans.insert = getelementptr inbounds nuw i8, ptr %0, i64 184
  %.pre = load i32, ptr %.phi.trans.insert, align 8
  br label %35

29:                                               ; preds = %26
  %30 = getelementptr i8, ptr %21, i64 %24
  %31 = sub nsw i64 0, %8
  %32 = getelementptr i8, ptr %30, i64 %31
  %33 = getelementptr inbounds nuw i8, ptr %0, i64 184
  %34 = load i32, ptr %33, align 8
  %.not39 = icmp eq i32 %34, 0
  br i1 %.not39, label %40, label %35

35:                                               ; preds = %._crit_edge, %29
  %36 = phi i32 [ %.pre, %._crit_edge ], [ %34, %29 ]
  %37 = zext i32 %36 to i64
  %38 = getelementptr i8, ptr %21, i64 %37
  %39 = getelementptr i8, ptr %38, i64 -1
  br label %40

40:                                               ; preds = %35, %29
  %.033 = phi ptr [ %39, %35 ], [ %32, %29 ]
  %.not4043 = icmp ult ptr %.033, %21
  br i1 %.not4043, label %.loopexit, label %.lr.ph

.lr.ph:                                           ; preds = %40
  %41 = ptrtoint ptr %21 to i64
  %.pre47 = load ptr, ptr %3, align 8
  br label %42

42:                                               ; preds = %.lr.ph, %59
  %43 = phi ptr [ %.pre47, %.lr.ph ], [ %51, %59 ]
  %.144 = phi ptr [ %.033, %.lr.ph ], [ %60, %59 ]
  %44 = load i8, ptr %43, align 1
  %45 = zext i8 %44 to i32
  %46 = ptrtoint ptr %.144 to i64
  %reass.sub = sub i64 %46, %41
  %47 = add i64 %reass.sub, 1
  %48 = call ptr @ws_memrchr(ptr noundef %21, i32 noundef %45, i64 noundef %47)
  %49 = icmp eq ptr %48, null
  br i1 %49, label %.loopexit, label %50

50:                                               ; preds = %42
  %51 = load ptr, ptr %3, align 8
  %bcmp = call i32 @bcmp(ptr nonnull %48, ptr %51, i64 %8)
  %52 = icmp eq i32 %bcmp, 0
  br i1 %52, label %53, label %59

53:                                               ; preds = %50
  %54 = ptrtoint ptr %48 to i64
  %55 = sub i64 %54, %41
  %56 = trunc i64 %55 to i32
  %57 = getelementptr inbounds nuw i8, ptr %0, i64 184
  store i32 %56, ptr %57, align 8
  %58 = trunc nuw i64 %8 to i32
  store i32 %58, ptr %27, align 4
  br label %.loopexit

59:                                               ; preds = %50
  %60 = getelementptr i8, ptr %48, i64 -1
  %.not40 = icmp ult ptr %60, %21
  br i1 %.not40, label %.loopexit, label %42, !llvm.loop !48

.loopexit:                                        ; preds = %42, %59, %40, %cf_read_record.exit, %53, %18
  %.0 = phi i32 [ 2, %cf_read_record.exit ], [ 0, %18 ], [ 1, %53 ], [ 0, %40 ], [ 0, %59 ], [ 0, %42 ]
  ret i32 %.0
}